target datalayout = "e-m:e-p270:32:32-p271:32:32-p272:64:64-i64:64-i128:128-f80:128-n8:16:32:64-S128"
target triple = "x86_64-unknown-linux-gnu"

; Function Attrs: nounwind sspstrong uwtable
define dso_local void @bdrv_graph_wrunlock(ptr noundef %bs) #0 {
entry:
  %bs.addr = alloca ptr, align 8
  %ctx = alloca ptr, align 8
  store ptr %bs, ptr %bs.addr, align 8
  %0 = load ptr, ptr %bs.addr, align 8
  %tobool = icmp ne ptr %0, null
  br i1 %tobool, label %cond.true, label %cond.false

cond.true:                                        ; preds = %entry
  %1 = load ptr, ptr %bs.addr, align 8
  %call = call ptr @bdrv_get_aio_context(ptr noundef %1)
  br label %cond.end

cond.false:                                       ; preds = %entry
  br label %cond.end

cond.end:                                         ; preds = %cond.false, %cond.true
  %cond = phi ptr [ %call, %cond.true ], [ null, %cond.false ]
  store ptr %cond, ptr %ctx, align 8
  %2 = load ptr, ptr %ctx, align 8
  call void @bdrv_graph_wrunlock_ctx(ptr noundef %2)
  ret void
}