; Function Attrs: nounwind sspstrong uwtable
define dso_local void @bdrv_graph_wrunlock(ptr noundef %bs) #0 {
entry:
  %tobool.not = icmp eq ptr %bs, null
  br i1 %tobool.not, label %cond.end, label %cond.true

cond.true:                                        ; preds = %entry
  %call = tail call ptr @bdrv_get_aio_context(ptr noundef nonnull %bs) #5
  br label %cond.end

cond.end:                                         ; preds = %entry, %cond.true
  %cond = phi ptr [ %call, %cond.true ], [ null, %entry ]
  tail call void @bdrv_graph_wrunlock_ctx(ptr noundef %cond)
  ret void
}